; Function Attrs: mustprogress uwtable
define void @_ZN8proxygen13SessionHolder6onReadERKNS_15HTTPSessionBaseEm(ptr noundef nonnull align 8 dereferenceable(152) %this, ptr noundef nonnull align 8 dereferenceable(1582) %session, i64 noundef %bytesRead) unnamed_addr #3 align 2 personality ptr @__gxx_personality_v0 {
entry:
  %agg.tmp = alloca %"class.folly::Optional.30", align 8
  store i8 0, ptr %agg.tmp, align 8
  %hasValue.i.i = getelementptr inbounds i8, ptr %agg.tmp, i64 8
  store i8 0, ptr %hasValue.i.i, align 8
  %vtable = load ptr, ptr %this, align 8
  %vfn = getelementptr inbounds i8, ptr %vtable, i64 72
  %0 = load ptr, ptr %vfn, align 8
  call void %0(ptr noundef nonnull align 8 dereferenceable(152) %this, ptr noundef nonnull align 8 dereferenceable(1582) %session, i64 noundef %bytesRead, ptr noundef nonnull %agg.tmp)
  ret void
}